target datalayout = "e-m:e-p270:32:32-p271:32:32-p272:64:64-i64:64-i128:128-f80:128-n8:16:32:64-S128"
target triple = "x86_64-pc-linux-gnu"

%struct._php_basic_globals = type { ptr, %struct._zend_array, ptr, ptr, i8, ptr, [256 x i8], i64, %struct._zend_fcall_info, %struct._zend_fcall_info_cache, ptr, %struct._zval_struct, %struct._zval_struct, i64, i64, i64, i64, ptr, ptr, %struct._php_stream_statbuf, %struct._php_stream_statbuf, ptr, i32, %struct.anon.7, %struct.anon.8, %struct.url_adapt_state_ex_t, %struct._zend_array, %struct.url_adapt_state_ex_t, %struct._zend_array, ptr, i32, i64 }
%struct._zend_fcall_info = type { i64, %struct._zval_struct, ptr, ptr, ptr, i32, ptr }
%struct._zend_fcall_info_cache = type { ptr, ptr, ptr, ptr, ptr }
%struct._zval_struct = type { %union._zend_value, %union.anon, %union.anon.2 }
%union._zend_value = type { i64 }
%union.anon = type { i32 }
%union.anon.2 = type { i32 }
%struct._php_stream_statbuf = type { %struct.stat }
%struct.stat = type { i64, i64, i64, i32, i32, i32, i32, i64, i64, i64, i64, %struct.timespec, %struct.timespec, %struct.timespec, [3 x i64] }
%struct.timespec = type { i64, i64 }
%struct.anon.7 = type { ptr, i32 }
%struct.anon.8 = type { ptr, i32 }
%struct.url_adapt_state_ex_t = type { %struct.smart_str, %struct.smart_str, %struct.smart_str, %struct.smart_str, %struct.smart_str, %struct.smart_str, %struct.smart_str, i32, ptr, i32, i32, %struct.smart_str, i32, i32, ptr }
%struct.smart_str = type { ptr, i64 }
%struct._zend_array = type { %struct._zend_refcounted_h, %union.anon.4, i32, %union.anon.6, i32, i32, i32, i32, i64, ptr }
%struct._zend_refcounted_h = type { i32, %union.anon.3 }
%union.anon.3 = type { i32 }
%union.anon.4 = type { i32 }
%union.anon.6 = type { ptr }
%struct._zend_refcounted = type { %struct._zend_refcounted_h }
%struct.anon.0 = type { i8, i8, %union.anon.1 }
%union.anon.1 = type { i16 }

@basic_globals = external global %struct._php_basic_globals, align 8
@.str = private unnamed_addr constant [21 x i8] c"http_response_header\00", align 1

; Function Attrs: alwaysinline nounwind uwtable
define internal i32 @zend_gc_addref(ptr noundef %0) #3 {
  %2 = alloca ptr, align 8
  store ptr %0, ptr %2, align 8, !tbaa !93
  br label %3

3:                                                ; preds = %1
  br label %4

4:                                                ; preds = %3
  %5 = load ptr, ptr %2, align 8, !tbaa !93
  %6 = getelementptr inbounds nuw %struct._zend_refcounted_h, ptr %5, i32 0, i32 0
  %7 = load i32, ptr %6, align 4, !tbaa !95
  %8 = add i32 %7, 1
  store i32 %8, ptr %6, align 4, !tbaa !95
  ret i32 %8
}

; Function Attrs: alwaysinline nounwind uwtable
define internal zeroext i8 @zval_get_type(ptr noundef %0) #3 {
  %2 = alloca ptr, align 8
  store ptr %0, ptr %2, align 8, !tbaa !20
  %3 = load ptr, ptr %2, align 8, !tbaa !20
  %4 = getelementptr inbounds nuw %struct._zval_struct, ptr %3, i32 0, i32 1
  %5 = getelementptr inbounds nuw %struct.anon.0, ptr %4, i32 0, i32 0
  %6 = load i8, ptr %5, align 8, !tbaa !17
  ret i8 %6
}

; Function Attrs: nounwind uwtable
define hidden ptr @php_stream_url_wrap_http(ptr noundef %0, ptr noundef %1, ptr noundef %2, i32 noundef %3, ptr noundef %4, ptr noundef %5) #0 {
  %7 = alloca ptr, align 8
  %8 = alloca ptr, align 8
  %9 = alloca ptr, align 8
  %10 = alloca i32, align 4
  %11 = alloca ptr, align 8
  %12 = alloca ptr, align 8
  %13 = alloca ptr, align 8
  %14 = alloca %struct._zval_struct, align 8
  %15 = alloca ptr, align 8
  %16 = alloca ptr, align 8
  %17 = alloca ptr, align 8
  %18 = alloca i32, align 4
  store ptr %0, ptr %7, align 8, !tbaa !4
  store ptr %1, ptr %8, align 8, !tbaa !9
  store ptr %2, ptr %9, align 8, !tbaa !9
  store i32 %3, ptr %10, align 4, !tbaa !11
  store ptr %4, ptr %11, align 8, !tbaa !13
  store ptr %5, ptr %12, align 8, !tbaa !15
  call void @llvm.lifetime.start.p0(i64 8, ptr %13) #15
  call void @llvm.lifetime.start.p0(i64 16, ptr %14) #15
  br label %19

19:                                               ; preds = %6
  %20 = getelementptr inbounds nuw %struct._zval_struct, ptr %14, i32 0, i32 1
  store i32 0, ptr %20, align 8, !tbaa !17
  br label %21

21:                                               ; preds = %19
  br label %22

22:                                               ; preds = %21
  call void @zval_ptr_dtor(ptr noundef getelementptr inbounds nuw (%struct._php_basic_globals, ptr @basic_globals, i32 0, i32 12))
  br label %23

23:                                               ; preds = %22
  store i32 0, ptr getelementptr inbounds nuw (%struct._zval_struct, ptr getelementptr inbounds nuw (%struct._php_basic_globals, ptr @basic_globals, i32 0, i32 12), i32 0, i32 1), align 8, !tbaa !17
  br label %24

24:                                               ; preds = %23
  br label %25

25:                                               ; preds = %24
  %26 = load ptr, ptr %7, align 8, !tbaa !4
  %27 = load ptr, ptr %8, align 8, !tbaa !9
  %28 = load ptr, ptr %9, align 8, !tbaa !9
  %29 = load i32, ptr %10, align 4, !tbaa !11
  %30 = load ptr, ptr %11, align 8, !tbaa !13
  %31 = load ptr, ptr %12, align 8, !tbaa !15
  %32 = call ptr @php_stream_url_wrap_http_ex(ptr noundef %26, ptr noundef %27, ptr noundef %28, i32 noundef %29, ptr noundef %30, ptr noundef %31, i32 noundef 20, i32 noundef 1, ptr noundef %14)
  store ptr %32, ptr %13, align 8, !tbaa !18
  %33 = call zeroext i8 @zval_get_type(ptr noundef %14)
  %34 = zext i8 %33 to i32
  %35 = icmp eq i32 %34, 0
  br i1 %35, label %67, label %36

36:                                               ; preds = %25
  br label %37

37:                                               ; preds = %36
  call void @llvm.lifetime.start.p0(i64 8, ptr %15) #15
  store ptr getelementptr inbounds nuw (%struct._php_basic_globals, ptr @basic_globals, i32 0, i32 12), ptr %15, align 8, !tbaa !20
  call void @llvm.lifetime.start.p0(i64 8, ptr %16) #15
  store ptr %14, ptr %16, align 8, !tbaa !20
  call void @llvm.lifetime.start.p0(i64 8, ptr %17) #15
  %38 = load ptr, ptr %16, align 8, !tbaa !20
  %39 = getelementptr inbounds nuw %struct._zval_struct, ptr %38, i32 0, i32 0
  %40 = load ptr, ptr %39, align 8, !tbaa !17
  store ptr %40, ptr %17, align 8, !tbaa !22
  call void @llvm.lifetime.start.p0(i64 4, ptr %18) #15
  %41 = load ptr, ptr %16, align 8, !tbaa !20
  %42 = getelementptr inbounds nuw %struct._zval_struct, ptr %41, i32 0, i32 1
  %43 = load i32, ptr %42, align 8, !tbaa !17
  store i32 %43, ptr %18, align 4, !tbaa !11
  br label %44

44:                                               ; preds = %37
  %45 = load ptr, ptr %17, align 8, !tbaa !22
  %46 = load ptr, ptr %15, align 8, !tbaa !20
  %47 = getelementptr inbounds nuw %struct._zval_struct, ptr %46, i32 0, i32 0
  store ptr %45, ptr %47, align 8, !tbaa !17
  %48 = load i32, ptr %18, align 4, !tbaa !11
  %49 = load ptr, ptr %15, align 8, !tbaa !20
  %50 = getelementptr inbounds nuw %struct._zval_struct, ptr %49, i32 0, i32 1
  store i32 %48, ptr %50, align 8, !tbaa !17
  br label %51

51:                                               ; preds = %44
  br label %52

52:                                               ; preds = %51
  %53 = load i32, ptr %18, align 4, !tbaa !11
  %54 = and i32 %53, 65280
  %55 = icmp ne i32 %54, 0
  br i1 %55, label %56, label %60

56:                                               ; preds = %52
  %57 = load ptr, ptr %17, align 8, !tbaa !22
  %58 = getelementptr inbounds nuw %struct._zend_refcounted, ptr %57, i32 0, i32 0
  %59 = call i32 @zend_gc_addref(ptr noundef %58)
  br label %60

60:                                               ; preds = %56, %52
  call void @llvm.lifetime.end.p0(i64 4, ptr %18) #15
  call void @llvm.lifetime.end.p0(i64 8, ptr %17) #15
  call void @llvm.lifetime.end.p0(i64 8, ptr %16) #15
  call void @llvm.lifetime.end.p0(i64 8, ptr %15) #15
  br label %61

61:                                               ; preds = %60
  br label %62

62:                                               ; preds = %61
  %63 = call i32 @zend_set_local_var_str(ptr noundef @.str, i64 noundef 20, ptr noundef %14, i1 noundef zeroext false)
  %64 = icmp eq i32 -1, %63
  br i1 %64, label %65, label %66

65:                                               ; preds = %62
  call void @zval_ptr_dtor(ptr noundef %14)
  br label %66

66:                                               ; preds = %65, %62
  br label %67

67:                                               ; preds = %66, %25
  %68 = load ptr, ptr %13, align 8, !tbaa !18
  call void @llvm.lifetime.end.p0(i64 16, ptr %14) #15
  call void @llvm.lifetime.end.p0(i64 8, ptr %13) #15
  ret ptr %68
}