; Function Attrs: nounwind uwtable
define hidden ptr @php_stream_url_wrap_http(ptr noundef %0, ptr noundef %1, ptr noundef %2, i32 noundef %3, ptr readnone captures(none) %4, ptr noundef %5) #0 {
  %7 = alloca %struct._zval_struct, align 8
  call void @llvm.lifetime.start.p0(i64 16, ptr nonnull %7) #18
  %8 = getelementptr inbounds nuw i8, ptr %7, i64 8
  store i32 0, ptr %8, align 8, !tbaa !4
  tail call void @zval_ptr_dtor(ptr noundef nonnull getelementptr inbounds nuw (i8, ptr @basic_globals, i64 488)) #18
  store i32 0, ptr getelementptr inbounds nuw (i8, ptr @basic_globals, i64 496), align 8, !tbaa !4
  %9 = call fastcc ptr @php_stream_url_wrap_http_ex(ptr noundef %0, ptr noundef %1, ptr noundef %2, i32 noundef %3, ptr noundef %5, i32 noundef 20, i32 noundef 1, ptr noundef %7)
  %10 = load i8, ptr %8, align 8, !tbaa !4
  %11 = icmp eq i8 %10, 0
  br i1 %11, label %23, label %12

12:                                               ; preds = %6
  %13 = load ptr, ptr %7, align 8, !tbaa !4
  %14 = load i32, ptr %8, align 8, !tbaa !4
  store ptr %13, ptr getelementptr inbounds nuw (i8, ptr @basic_globals, i64 488), align 8, !tbaa !4
  store i32 %14, ptr getelementptr inbounds nuw (i8, ptr @basic_globals, i64 496), align 8, !tbaa !4
  %15 = and i32 %14, 65280
  %.not = icmp eq i32 %15, 0
  br i1 %.not, label %19, label %16

16:                                               ; preds = %12
  %17 = load i32, ptr %13, align 4, !tbaa !7
  %18 = add i32 %17, 1
  store i32 %18, ptr %13, align 4, !tbaa !7
  br label %19

19:                                               ; preds = %16, %12
  %20 = call i32 @zend_set_local_var_str(ptr noundef nonnull @.str, i64 noundef 20, ptr noundef nonnull %7, i1 noundef zeroext false) #18
  %21 = icmp eq i32 %20, -1
  br i1 %21, label %22, label %23

22:                                               ; preds = %19
  call void @zval_ptr_dtor(ptr noundef nonnull %7) #18
  br label %23

23:                                               ; preds = %19, %22, %6
  call void @llvm.lifetime.end.p0(i64 16, ptr nonnull %7) #18
  ret ptr %9
}